; Function Attrs: nofree norecurse nosync nounwind memory(read, argmem: readwrite, inaccessiblemem: none) uwtable
define internal fastcc range(i32 0, 17) i32 @SzSkeepData(ptr noundef nonnull captures(none) %0) unnamed_addr #5 {
  %2 = getelementptr inbounds nuw i8, ptr %0, i64 8
  %3 = load i64, ptr %2, align 8
  %4 = icmp eq i64 %3, 0
  br i1 %4, label %SzReadNumber.exit, label %5

5:                                                ; preds = %1
  %6 = add i64 %3, -1
  store i64 %6, ptr %2, align 8
  %7 = load ptr, ptr %0, align 8
  %8 = getelementptr inbounds nuw i8, ptr %7, i64 1
  store ptr %8, ptr %0, align 8
  %9 = load i8, ptr %7, align 1
  %10 = zext i8 %9 to i32
  br label %11

11:                                               ; preds = %26, %5
  %12 = phi ptr [ %8, %5 ], [ %28, %26 ]
  %13 = phi i64 [ %6, %5 ], [ %27, %26 ]
  %.07 = phi i64 [ 0, %5 ], [ %33, %26 ]
  %indvars.iv.i = phi i64 [ 0, %5 ], [ %indvars.iv.next.i, %26 ]
  %.01738.i = phi i32 [ 128, %5 ], [ %34, %26 ]
  %14 = and i32 %.01738.i, %10
  %15 = icmp eq i32 %14, 0
  br i1 %15, label %16, label %24

16:                                               ; preds = %11
  %17 = add nuw nsw i32 %.01738.i, 255
  %18 = and i32 %17, %10
  %19 = zext nneg i32 %18 to i64
  %20 = shl i64 %indvars.iv.i, 3
  %21 = and i64 %20, 4294967288
  %22 = shl nuw i64 %19, %21
  %23 = add i64 %22, %.07
  br label %.loopexit

24:                                               ; preds = %11
  %25 = icmp eq i64 %13, 0
  br i1 %25, label %SzReadNumber.exit, label %26

26:                                               ; preds = %24
  %27 = add i64 %13, -1
  store i64 %27, ptr %2, align 8
  %28 = getelementptr inbounds nuw i8, ptr %12, i64 1
  store ptr %28, ptr %0, align 8
  %29 = load i8, ptr %12, align 1
  %30 = zext i8 %29 to i64
  %31 = shl nuw nsw i64 %indvars.iv.i, 3
  %32 = shl nuw i64 %30, %31
  %33 = or i64 %32, %.07
  %34 = lshr i32 %.01738.i, 1
  %indvars.iv.next.i = add nuw nsw i64 %indvars.iv.i, 1
  %exitcond.not.i = icmp eq i64 %indvars.iv.next.i, 8
  br i1 %exitcond.not.i, label %.loopexit, label %11

.loopexit:                                        ; preds = %26, %16
  %35 = phi ptr [ %12, %16 ], [ %28, %26 ]
  %36 = phi i64 [ %13, %16 ], [ %27, %26 ]
  %.1.ph = phi i64 [ %23, %16 ], [ %33, %26 ]
  %37 = icmp ugt i64 %.1.ph, %36
  br i1 %37, label %SzReadNumber.exit, label %38

38:                                               ; preds = %.loopexit
  %39 = sub nuw i64 %36, %.1.ph
  store i64 %39, ptr %2, align 8
  %40 = getelementptr inbounds i8, ptr %35, i64 %.1.ph
  store ptr %40, ptr %0, align 8
  br label %SzReadNumber.exit

SzReadNumber.exit:                                ; preds = %24, %38, %.loopexit, %1
  %.0 = phi i32 [ 16, %1 ], [ 0, %38 ], [ 16, %.loopexit ], [ 16, %24 ]
  ret i32 %.0
}